target datalayout = "e-m:e-p270:32:32-p271:32:32-p272:64:64-i64:64-i128:128-f80:128-n8:16:32:64-S128"
target triple = "x86_64-pc-linux-gnu"

%"class.std::ios_base" = type { ptr, i64, i64, i32, i32, i32, ptr, %"struct.std::ios_base::_Words", [8 x %"struct.std::ios_base::_Words"], i32, ptr, %"class.std::locale" }
%"struct.std::ios_base::_Words" = type { ptr, i64 }
%"class.std::locale" = type { ptr }
%"class.std::fpos" = type { i64, %struct.__mbstate_t }
%struct.__mbstate_t = type { i32, %union.anon }
%union.anon = type { i32 }

@.str = private unnamed_addr constant [6 x i8] c"solid\00", align 1

; Function Attrs: mustprogress nounwind uwtable
define available_externally noundef i32 @_ZNKSt9basic_iosIcSt11char_traitsIcEE7rdstateEv(ptr noundef nonnull align 8 dereferenceable(264) %0) #1 align 2 {
  %2 = alloca ptr, align 8
  store ptr %0, ptr %2, align 8, !tbaa !25
  %3 = load ptr, ptr %2, align 8
  %4 = getelementptr inbounds nuw %"class.std::ios_base", ptr %3, i32 0, i32 5
  %5 = load i32, ptr %4, align 8, !tbaa !131
  ret i32 %5
}

; Function Attrs: mustprogress nounwind uwtable
define linkonce_odr dso_local noundef i64 @_ZNKSt4fposI11__mbstate_tEcvlEv(ptr noundef nonnull align 8 dereferenceable(16) %0) #1 comdat align 2 {
  %2 = alloca ptr, align 8
  store ptr %0, ptr %2, align 8, !tbaa !27
  %3 = load ptr, ptr %2, align 8
  %4 = getelementptr inbounds nuw %"class.std::fpos", ptr %3, i32 0, i32 0
  %5 = load i64, ptr %4, align 8, !tbaa !29
  ret i64 %5
}

; Function Attrs: mustprogress uwtable
define available_externally noundef zeroext i1 @_ZNKSt9basic_iosIcSt11char_traitsIcEE4goodEv(ptr noundef nonnull align 8 dereferenceable(264) %0) #3 align 2 {
  %2 = alloca ptr, align 8
  store ptr %0, ptr %2, align 8, !tbaa !25
  %3 = load ptr, ptr %2, align 8
  %4 = call noundef i32 @_ZNKSt9basic_iosIcSt11char_traitsIcEE7rdstateEv(ptr noundef nonnull align 8 dereferenceable(264) %3)
  %5 = icmp eq i32 %4, 0
  ret i1 %5
}

; Function Attrs: mustprogress uwtable
define dso_local noundef zeroext i1 @_ZN3igl13is_stl_binaryERSi(ptr noundef nonnull align 8 dereferenceable(16) %0) #3 {
  %2 = alloca i1, align 1
  %3 = alloca ptr, align 8
  %4 = alloca %"class.std::fpos", align 8
  %5 = alloca i64, align 8
  %6 = alloca [80 x i8], align 16
  %7 = alloca %"class.std::fpos", align 8
  %8 = alloca i32, align 4
  %9 = alloca %"class.std::fpos", align 8
  %10 = alloca [4 x i8], align 1
  %11 = alloca i64, align 8
  %12 = alloca i64, align 8
  %13 = alloca %"class.std::fpos", align 8
  %14 = alloca %"class.std::fpos", align 8
  store ptr %0, ptr %3, align 8, !tbaa !15
  call void @llvm.lifetime.start.p0(i64 16, ptr %4) #20
  %15 = load ptr, ptr %3, align 8, !tbaa !15
  %16 = call { i64, i64 } @_ZNSi5tellgEv(ptr noundef nonnull align 8 dereferenceable(16) %15)
  %17 = getelementptr inbounds nuw { i64, i64 }, ptr %4, i32 0, i32 0
  %18 = extractvalue { i64, i64 } %16, 0
  store i64 %18, ptr %17, align 8
  %19 = getelementptr inbounds nuw { i64, i64 }, ptr %4, i32 0, i32 1
  %20 = extractvalue { i64, i64 } %16, 1
  store i64 %20, ptr %19, align 8
  call void @llvm.lifetime.start.p0(i64 8, ptr %5) #20
  store i64 80, ptr %5, align 8, !tbaa !17
  call void @llvm.lifetime.start.p0(i64 80, ptr %6) #20
  %21 = load ptr, ptr %3, align 8, !tbaa !15
  %22 = getelementptr inbounds [80 x i8], ptr %6, i64 0, i64 0
  %23 = call noundef nonnull align 8 dereferenceable(16) ptr @_ZNSi4readEPcl(ptr noundef nonnull align 8 dereferenceable(16) %21, ptr noundef %22, i64 noundef 80)
  %24 = getelementptr inbounds [80 x i8], ptr %6, i64 0, i64 0
  %25 = call noundef zeroext i1 @_ZN3igl11starts_withEPKcS1_(ptr noundef %24, ptr noundef @.str)
  br i1 %25, label %33, label %26

26:                                               ; preds = %1
  %27 = load ptr, ptr %3, align 8, !tbaa !15
  call void @llvm.memcpy.p0.p0.i64(ptr align 8 %7, ptr align 8 %4, i64 16, i1 false), !tbaa.struct !19
  %28 = getelementptr inbounds nuw { i64, i64 }, ptr %7, i32 0, i32 0
  %29 = load i64, ptr %28, align 8
  %30 = getelementptr inbounds nuw { i64, i64 }, ptr %7, i32 0, i32 1
  %31 = load i64, ptr %30, align 8
  %32 = call noundef nonnull align 8 dereferenceable(16) ptr @_ZNSi5seekgESt4fposI11__mbstate_tE(ptr noundef nonnull align 8 dereferenceable(16) %27, i64 %29, i64 %31)
  store i1 true, ptr %2, align 1
  store i32 1, ptr %8, align 4
  br label %77

33:                                               ; preds = %1
  %34 = load ptr, ptr %3, align 8, !tbaa !15
  %35 = load ptr, ptr %34, align 8, !tbaa !23
  %36 = getelementptr i8, ptr %35, i64 -24
  %37 = load i64, ptr %36, align 8
  %38 = getelementptr inbounds i8, ptr %34, i64 %37
  %39 = call noundef zeroext i1 @_ZNKSt9basic_iosIcSt11char_traitsIcEE4goodEv(ptr noundef nonnull align 8 dereferenceable(264) %38)
  br i1 %39, label %47, label %40

40:                                               ; preds = %33
  %41 = load ptr, ptr %3, align 8, !tbaa !15
  call void @llvm.memcpy.p0.p0.i64(ptr align 8 %9, ptr align 8 %4, i64 16, i1 false), !tbaa.struct !19
  %42 = getelementptr inbounds nuw { i64, i64 }, ptr %9, i32 0, i32 0
  %43 = load i64, ptr %42, align 8
  %44 = getelementptr inbounds nuw { i64, i64 }, ptr %9, i32 0, i32 1
  %45 = load i64, ptr %44, align 8
  %46 = call noundef nonnull align 8 dereferenceable(16) ptr @_ZNSi5seekgESt4fposI11__mbstate_tE(ptr noundef nonnull align 8 dereferenceable(16) %41, i64 %43, i64 %45)
  store i1 false, ptr %2, align 1
  store i32 1, ptr %8, align 4
  br label %77

47:                                               ; preds = %33
  call void @llvm.lifetime.start.p0(i64 4, ptr %10) #20
  %48 = load ptr, ptr %3, align 8, !tbaa !15
  %49 = getelementptr inbounds [4 x i8], ptr %10, i64 0, i64 0
  %50 = call noundef nonnull align 8 dereferenceable(16) ptr @_ZNSi4readEPcl(ptr noundef nonnull align 8 dereferenceable(16) %48, ptr noundef %49, i64 noundef 4)
  call void @llvm.lifetime.start.p0(i64 8, ptr %11) #20
  %51 = getelementptr inbounds [4 x i8], ptr %10, i64 0, i64 0
  %52 = load i32, ptr %51, align 1, !tbaa !20
  %53 = zext i32 %52 to i64
  store i64 %53, ptr %11, align 8, !tbaa !17
  %54 = load ptr, ptr %3, align 8, !tbaa !15
  %55 = call noundef nonnull align 8 dereferenceable(16) ptr @_ZNSi5seekgElSt12_Ios_Seekdir(ptr noundef nonnull align 8 dereferenceable(16) %54, i64 noundef 0, i32 noundef 2)
  call void @llvm.lifetime.start.p0(i64 8, ptr %12) #20
  call void @llvm.lifetime.start.p0(i64 16, ptr %13) #20
  %56 = load ptr, ptr %3, align 8, !tbaa !15
  %57 = call { i64, i64 } @_ZNSi5tellgEv(ptr noundef nonnull align 8 dereferenceable(16) %56)
  %58 = getelementptr inbounds nuw { i64, i64 }, ptr %13, i32 0, i32 0
  %59 = extractvalue { i64, i64 } %57, 0
  store i64 %59, ptr %58, align 8
  %60 = getelementptr inbounds nuw { i64, i64 }, ptr %13, i32 0, i32 1
  %61 = extractvalue { i64, i64 } %57, 1
  store i64 %61, ptr %60, align 8
  %62 = call noundef i64 @_ZNKSt4fposI11__mbstate_tEcvlEv(ptr noundef nonnull align 8 dereferenceable(16) %13)
  call void @llvm.lifetime.end.p0(i64 16, ptr %13) #20
  store i64 %62, ptr %12, align 8, !tbaa !17
  %63 = load ptr, ptr %3, align 8, !tbaa !15
  call void @llvm.memcpy.p0.p0.i64(ptr align 8 %14, ptr align 8 %4, i64 16, i1 false), !tbaa.struct !19
  %64 = getelementptr inbounds nuw { i64, i64 }, ptr %14, i32 0, i32 0
  %65 = load i64, ptr %64, align 8
  %66 = getelementptr inbounds nuw { i64, i64 }, ptr %14, i32 0, i32 1
  %67 = load i64, ptr %66, align 8
  %68 = call noundef nonnull align 8 dereferenceable(16) ptr @_ZNSi5seekgESt4fposI11__mbstate_tE(ptr noundef nonnull align 8 dereferenceable(16) %63, i64 %65, i64 %67)
  %69 = load i64, ptr %12, align 8, !tbaa !17
  %70 = load i64, ptr %11, align 8, !tbaa !17
  %71 = mul i64 50, %70
  %72 = add i64 84, %71
  %73 = icmp eq i64 %69, %72
  br i1 %73, label %74, label %75

74:                                               ; preds = %47
  store i1 true, ptr %2, align 1
  store i32 1, ptr %8, align 4
  br label %76

75:                                               ; preds = %47
  store i1 false, ptr %2, align 1
  store i32 1, ptr %8, align 4
  br label %76

76:                                               ; preds = %75, %74
  call void @llvm.lifetime.end.p0(i64 8, ptr %12) #20
  call void @llvm.lifetime.end.p0(i64 8, ptr %11) #20
  call void @llvm.lifetime.end.p0(i64 4, ptr %10) #20
  br label %77

77:                                               ; preds = %76, %40, %26
  call void @llvm.lifetime.end.p0(i64 80, ptr %6) #20
  call void @llvm.lifetime.end.p0(i64 8, ptr %5) #20
  call void @llvm.lifetime.end.p0(i64 16, ptr %4) #20
  %78 = load i1, ptr %2, align 1
  ret i1 %78
}