; Function Attrs: mustprogress uwtable
define dso_local noundef zeroext i1 @_ZN3igl13is_stl_binaryERSi(ptr noundef nonnull align 8 dereferenceable(16) %0) local_unnamed_addr #0 {
  %2 = alloca [80 x i8], align 16
  %3 = alloca [4 x i8], align 4
  %4 = tail call { i64, i64 } @_ZNSi5tellgEv(ptr noundef nonnull align 8 dereferenceable(16) %0)
  %5 = extractvalue { i64, i64 } %4, 0
  %6 = extractvalue { i64, i64 } %4, 1
  call void @llvm.lifetime.start.p0(i64 80, ptr nonnull %2) #17
  %7 = call noundef nonnull align 8 dereferenceable(16) ptr @_ZNSi4readEPcl(ptr noundef nonnull align 8 dereferenceable(16) %0, ptr noundef nonnull %2, i64 noundef 80)
  %8 = call noundef zeroext i1 @_ZN3igl11starts_withEPKcS1_(ptr noundef nonnull %2, ptr noundef nonnull @.str)
  br i1 %8, label %11, label %9

9:                                                ; preds = %1
  %10 = call noundef nonnull align 8 dereferenceable(16) ptr @_ZNSi5seekgESt4fposI11__mbstate_tE(ptr noundef nonnull align 8 dereferenceable(16) %0, i64 %5, i64 %6)
  br label %32

11:                                               ; preds = %1
  %12 = load ptr, ptr %0, align 8, !tbaa !4
  %13 = getelementptr i8, ptr %12, i64 -24
  %14 = load i64, ptr %13, align 8
  %15 = getelementptr inbounds i8, ptr %0, i64 %14
  %16 = getelementptr inbounds nuw i8, ptr %15, i64 32
  %17 = load i32, ptr %16, align 8, !tbaa !7
  %18 = icmp eq i32 %17, 0
  br i1 %18, label %21, label %19

19:                                               ; preds = %11
  %20 = call noundef nonnull align 8 dereferenceable(16) ptr @_ZNSi5seekgESt4fposI11__mbstate_tE(ptr noundef nonnull align 8 dereferenceable(16) %0, i64 %5, i64 %6)
  br label %32

21:                                               ; preds = %11
  call void @llvm.lifetime.start.p0(i64 4, ptr nonnull %3) #17
  %22 = call noundef nonnull align 8 dereferenceable(16) ptr @_ZNSi4readEPcl(ptr noundef nonnull align 8 dereferenceable(16) %0, ptr noundef nonnull %3, i64 noundef 4)
  %23 = load i32, ptr %3, align 4, !tbaa !20
  %24 = zext i32 %23 to i64
  %25 = call noundef nonnull align 8 dereferenceable(16) ptr @_ZNSi5seekgElSt12_Ios_Seekdir(ptr noundef nonnull align 8 dereferenceable(16) %0, i64 noundef 0, i32 noundef 2)
  %26 = call { i64, i64 } @_ZNSi5tellgEv(ptr noundef nonnull align 8 dereferenceable(16) %0)
  %27 = extractvalue { i64, i64 } %26, 0
  %28 = call noundef nonnull align 8 dereferenceable(16) ptr @_ZNSi5seekgESt4fposI11__mbstate_tE(ptr noundef nonnull align 8 dereferenceable(16) %0, i64 %5, i64 %6)
  %29 = mul nuw nsw i64 %24, 50
  %30 = add nuw nsw i64 %29, 84
  %31 = icmp eq i64 %27, %30
  call void @llvm.lifetime.end.p0(i64 4, ptr nonnull %3) #17
  br label %32

32:                                               ; preds = %21, %19, %9
  %.0 = phi i1 [ %31, %21 ], [ false, %19 ], [ true, %9 ]
  call void @llvm.lifetime.end.p0(i64 80, ptr nonnull %2) #17
  ret i1 %.0
}